target datalayout = "e-m:e-p270:32:32-p271:32:32-p272:64:64-i64:64-i128:128-f80:128-n8:16:32:64-S128"
target triple = "x86_64-pc-linux-gnu"

%struct.IndexScanDescData = type { ptr, ptr, ptr, i32, i32, ptr, ptr, i8, i8, i8, i8, i8, ptr, ptr, ptr, ptr, ptr, %struct.ItemPointerData, i8, ptr, i8, ptr, ptr, i8, ptr }
%struct.ItemPointerData = type { %struct.BlockIdData, i16 }
%struct.BlockIdData = type { i16, i16 }
%struct.SysScanDescData = type { ptr, ptr, ptr, ptr, ptr, ptr }

@.str.4 = private unnamed_addr constant [8 x i8] c"genam.c\00", align 1
@CheckXidAlive = external global i32, align 4
@.str.5 = private unnamed_addr constant [69 x i8] c"system catalog scans with lossy index conditions are not implemented\00", align 1
@__func__.systable_getnext_ordered = private unnamed_addr constant [25 x i8] c"systable_getnext_ordered\00", align 1
@.str.13 = private unnamed_addr constant [47 x i8] c"transaction aborted during system catalog scan\00", align 1
@__func__.HandleConcurrentAbort = private unnamed_addr constant [22 x i8] c"HandleConcurrentAbort\00", align 1

; Function Attrs: inlinehint nounwind uwtable
define internal void @HandleConcurrentAbort() #3 {
  %1 = load i32, ptr @CheckXidAlive, align 4
  %2 = icmp ne i32 %1, 0
  br i1 %2, label %3, label %20

3:                                                ; preds = %0
  %4 = load i32, ptr @CheckXidAlive, align 4
  %5 = call zeroext i1 @TransactionIdIsInProgress(i32 noundef %4)
  br i1 %5, label %20, label %6

6:                                                ; preds = %3
  %7 = load i32, ptr @CheckXidAlive, align 4
  %8 = call zeroext i1 @TransactionIdDidCommit(i32 noundef %7)
  br i1 %8, label %20, label %9

9:                                                ; preds = %6
  br label %10

10:                                               ; preds = %9
  br i1 true, label %11, label %13

11:                                               ; preds = %10
  %12 = call zeroext i1 @errstart_cold(i32 noundef 21, ptr noundef null) #8
  br i1 %12, label %15, label %18

13:                                               ; preds = %10
  %14 = call zeroext i1 @errstart(i32 noundef 21, ptr noundef null)
  br i1 %14, label %15, label %18

15:                                               ; preds = %13, %11
  %16 = call i32 @errcode(i32 noundef 4)
  %17 = call i32 (ptr, ...) @errmsg(ptr noundef @.str.13)
  call void @errfinish(ptr noundef @.str.4, i32 noundef 497, ptr noundef @__func__.HandleConcurrentAbort)
  br label %18

18:                                               ; preds = %15, %13, %11
  unreachable

19:                                               ; No predecessors!
  br label %20

20:                                               ; preds = %19, %6, %3, %0
  ret void
}

; Function Attrs: nounwind uwtable
define dso_local ptr @systable_getnext_ordered(ptr noundef %0, i32 noundef %1) #0 {
  %3 = alloca ptr, align 8
  %4 = alloca i32, align 4
  %5 = alloca ptr, align 8
  store ptr %0, ptr %3, align 8
  store i32 %1, ptr %4, align 4
  call void @llvm.lifetime.start.p0(i64 8, ptr %5) #7
  store ptr null, ptr %5, align 8
  %6 = load ptr, ptr %3, align 8
  %7 = getelementptr inbounds nuw %struct.SysScanDescData, ptr %6, i32 0, i32 3
  %8 = load ptr, ptr %7, align 8
  %9 = load i32, ptr %4, align 4
  %10 = load ptr, ptr %3, align 8
  %11 = getelementptr inbounds nuw %struct.SysScanDescData, ptr %10, i32 0, i32 5
  %12 = load ptr, ptr %11, align 8
  %13 = call zeroext i1 @index_getnext_slot(ptr noundef %8, i32 noundef %9, ptr noundef %12)
  br i1 %13, label %14, label %19

14:                                               ; preds = %2
  %15 = load ptr, ptr %3, align 8
  %16 = getelementptr inbounds nuw %struct.SysScanDescData, ptr %15, i32 0, i32 5
  %17 = load ptr, ptr %16, align 8
  %18 = call ptr @ExecFetchSlotHeapTuple(ptr noundef %17, i1 noundef zeroext false, ptr noundef null)
  store ptr %18, ptr %5, align 8
  br label %19

19:                                               ; preds = %14, %2
  %20 = load ptr, ptr %5, align 8
  %21 = icmp ne ptr %20, null
  br i1 %21, label %22, label %40

22:                                               ; preds = %19
  %23 = load ptr, ptr %3, align 8
  %24 = getelementptr inbounds nuw %struct.SysScanDescData, ptr %23, i32 0, i32 3
  %25 = load ptr, ptr %24, align 8
  %26 = getelementptr inbounds nuw %struct.IndexScanDescData, ptr %25, i32 0, i32 20
  %27 = load i8, ptr %26, align 8, !range !4, !noundef !5
  %28 = trunc i8 %27 to i1
  br i1 %28, label %29, label %40

29:                                               ; preds = %22
  br label %30

30:                                               ; preds = %29
  br i1 true, label %31, label %33

31:                                               ; preds = %30
  %32 = call zeroext i1 @errstart_cold(i32 noundef 21, ptr noundef null) #8
  br i1 %32, label %35, label %37

33:                                               ; preds = %30
  %34 = call zeroext i1 @errstart(i32 noundef 21, ptr noundef null)
  br i1 %34, label %35, label %37

35:                                               ; preds = %33, %31
  %36 = call i32 (ptr, ...) @errmsg_internal(ptr noundef @.str.5)
  call void @errfinish(ptr noundef @.str.4, i32 noundef 745, ptr noundef @__func__.systable_getnext_ordered)
  br label %37

37:                                               ; preds = %35, %33, %31
  unreachable

38:                                               ; No predecessors!
  br label %39

39:                                               ; preds = %38
  br label %40

40:                                               ; preds = %39, %22, %19
  call void @HandleConcurrentAbort()
  %41 = load ptr, ptr %5, align 8
  call void @llvm.lifetime.end.p0(i64 8, ptr %5) #7
  ret ptr %41
}