; Function Attrs: nounwind uwtable
define dso_local ptr @systable_getnext_ordered(ptr noundef readonly captures(none) %0, i32 noundef %1) local_unnamed_addr #0 {
  %3 = getelementptr inbounds nuw i8, ptr %0, i64 24
  %4 = load ptr, ptr %3, align 8
  %5 = getelementptr inbounds nuw i8, ptr %0, i64 40
  %6 = load ptr, ptr %5, align 8
  %7 = tail call zeroext i1 @index_getnext_slot(ptr noundef %4, i32 noundef %1, ptr noundef %6) #7
  br i1 %7, label %8, label %.thread

8:                                                ; preds = %2
  %9 = load ptr, ptr %5, align 8
  %10 = tail call ptr @ExecFetchSlotHeapTuple(ptr noundef %9, i1 noundef zeroext false, ptr noundef null) #7
  %.not = icmp eq ptr %10, null
  br i1 %.not, label %.thread, label %11

11:                                               ; preds = %8
  %12 = load ptr, ptr %3, align 8
  %13 = getelementptr inbounds nuw i8, ptr %12, i64 112
  %14 = load i8, ptr %13, align 8, !range !6, !noundef !7
  %15 = trunc nuw i8 %14 to i1
  br i1 %15, label %16, label %.thread

16:                                               ; preds = %11
  %17 = tail call zeroext i1 @errstart_cold(i32 noundef 21, ptr noundef null) #8
  tail call void @llvm.assume(i1 %17)
  %18 = tail call i32 (ptr, ...) @errmsg_internal(ptr noundef nonnull @.str.5) #7
  tail call void @errfinish(ptr noundef nonnull @.str.4, i32 noundef 745, ptr noundef nonnull @__func__.systable_getnext_ordered) #7
  unreachable

.thread:                                          ; preds = %2, %11, %8
  %.08 = phi ptr [ %10, %11 ], [ null, %8 ], [ null, %2 ]
  %19 = load i32, ptr @CheckXidAlive, align 4
  %.not.i = icmp eq i32 %19, 0
  br i1 %.not.i, label %HandleConcurrentAbort.exit, label %20

20:                                               ; preds = %.thread
  %21 = tail call zeroext i1 @TransactionIdIsInProgress(i32 noundef %19) #7
  br i1 %21, label %HandleConcurrentAbort.exit, label %22

22:                                               ; preds = %20
  %23 = load i32, ptr @CheckXidAlive, align 4
  %24 = tail call zeroext i1 @TransactionIdDidCommit(i32 noundef %23) #7
  br i1 %24, label %HandleConcurrentAbort.exit, label %25

25:                                               ; preds = %22
  %26 = tail call zeroext i1 @errstart_cold(i32 noundef 21, ptr noundef null) #8
  tail call void @llvm.assume(i1 %26)
  %27 = tail call i32 @errcode(i32 noundef 4) #7
  %28 = tail call i32 (ptr, ...) @errmsg(ptr noundef nonnull @.str.13) #7
  tail call void @errfinish(ptr noundef nonnull @.str.4, i32 noundef 497, ptr noundef nonnull @__func__.HandleConcurrentAbort) #7
  unreachable

HandleConcurrentAbort.exit:                       ; preds = %.thread, %20, %22
  ret ptr %.08
}